target datalayout = "e-m:e-p270:32:32-p271:32:32-p272:64:64-i64:64-i128:128-f80:128-n8:16:32:64-S128"
target triple = "x86_64-pc-linux-gnu"

%class.symbol = type { ptr }
%"class.sls::solver" = type { %"class.euf::th_euf_solver.base", %"class.sls::smt_context", %class.ref, ptr, i32, i8, %class.statistics }
%"class.euf::th_euf_solver.base" = type <{ %"class.euf::th_solver", ptr, %class.ptr_vector, %class.svector.1, i32 }>
%"class.euf::th_solver" = type { %"class.sat::extension", %"class.euf::th_model_builder", %"class.euf::th_decompile", %"class.euf::th_internalizer", ptr }
%"class.sat::extension" = type { ptr, i8, i32, %class.symbol, ptr }
%"class.euf::th_model_builder" = type { ptr }
%"class.euf::th_decompile" = type { ptr }
%"class.euf::th_internalizer" = type { ptr, %class.ptr_vector, %class.svector }
%class.svector = type { %class.vector.0 }
%class.vector.0 = type { ptr }
%class.ptr_vector = type { %class.vector }
%class.vector = type { ptr }
%class.svector.1 = type { %class.vector.2 }
%class.vector.2 = type { ptr }
%"class.sls::smt_context" = type { ptr }
%class.ref = type { ptr }
%class.statistics = type { %class.svector.3, %class.svector.5 }
%class.svector.3 = type { %class.vector.4 }
%class.vector.4 = type { ptr }
%class.svector.5 = type { %class.vector.6 }
%class.vector.6 = type { ptr }
%class.ptr_vector.33 = type { %class.vector.34 }
%class.vector.34 = type { ptr }
%class.model_core = type { ptr, ptr, i32, [4 x i8], %class.obj_map.218, %class.obj_map.223, %class.ptr_vector.33, %class.ptr_vector.33, %class.ptr_vector.33 }
%class.obj_map.218 = type { %class.core_hashtable.219 }
%class.core_hashtable.219 = type <{ ptr, i32, i32, i32, [4 x i8] }>
%class.obj_map.223 = type { %class.core_hashtable.224 }
%class.core_hashtable.224 = type <{ ptr, i32, i32, i32, [4 x i8] }>

; Function Attrs: mustprogress uwtable
define linkonce_odr hidden void @_Z7deallocI10model_coreEvPT_(ptr noundef %0) #4 comdat {
  %2 = alloca ptr, align 8
  store ptr %0, ptr %2, align 8, !tbaa !595
  %3 = load ptr, ptr %2, align 8, !tbaa !595
  %4 = icmp eq ptr %3, null
  br i1 %4, label %5, label %6

5:                                                ; preds = %1
  br label %12

6:                                                ; preds = %1
  %7 = load ptr, ptr %2, align 8, !tbaa !595
  %8 = load ptr, ptr %7, align 8, !tbaa !10
  %9 = getelementptr inbounds ptr, ptr %8, i64 0
  %10 = load ptr, ptr %9, align 8
  call void %10(ptr noundef nonnull align 8 dereferenceable(96) %7) #3
  %11 = load ptr, ptr %2, align 8, !tbaa !595
  call void @_ZN6memory10deallocateEPv(ptr noundef %11)
  br label %12

12:                                               ; preds = %6, %5
  ret void
}

; Function Attrs: mustprogress uwtable
define linkonce_odr hidden void @_ZN10model_core7dec_refEv(ptr noundef nonnull align 8 dereferenceable(96) %0) #4 comdat align 2 {
  %2 = alloca ptr, align 8
  store ptr %0, ptr %2, align 8, !tbaa !595
  %3 = load ptr, ptr %2, align 8
  %4 = getelementptr inbounds nuw %class.model_core, ptr %3, i32 0, i32 2
  %5 = load i32, ptr %4, align 8, !tbaa !597
  %6 = add i32 %5, -1
  store i32 %6, ptr %4, align 8, !tbaa !597
  %7 = getelementptr inbounds nuw %class.model_core, ptr %3, i32 0, i32 2
  %8 = load i32, ptr %7, align 8, !tbaa !597
  %9 = icmp eq i32 %8, 0
  br i1 %9, label %10, label %11

10:                                               ; preds = %1
  call void @_Z7deallocI10model_coreEvPT_(ptr noundef %3)
  br label %11

11:                                               ; preds = %10, %1
  ret void
}

; Function Attrs: mustprogress uwtable
define linkonce_odr hidden void @_ZN3refI5modelE7dec_refEv(ptr noundef nonnull align 8 dereferenceable(8) %0) #4 comdat align 2 {
  %2 = alloca ptr, align 8
  store ptr %0, ptr %2, align 8, !tbaa !402
  %3 = load ptr, ptr %2, align 8
  %4 = getelementptr inbounds nuw %class.ref, ptr %3, i32 0, i32 0
  %5 = load ptr, ptr %4, align 8, !tbaa !404
  %6 = icmp ne ptr %5, null
  br i1 %6, label %7, label %10

7:                                                ; preds = %1
  %8 = getelementptr inbounds nuw %class.ref, ptr %3, i32 0, i32 0
  %9 = load ptr, ptr %8, align 8, !tbaa !404
  call void @_ZN10model_core7dec_refEv(ptr noundef nonnull align 8 dereferenceable(96) %9)
  br label %10

10:                                               ; preds = %7, %1
  ret void
}

; Function Attrs: mustprogress nounwind uwtable
define linkonce_odr hidden void @_ZN10model_core7inc_refEv(ptr noundef nonnull align 8 dereferenceable(96) %0) #6 comdat align 2 {
  %2 = alloca ptr, align 8
  store ptr %0, ptr %2, align 8, !tbaa !595
  %3 = load ptr, ptr %2, align 8
  %4 = getelementptr inbounds nuw %class.model_core, ptr %3, i32 0, i32 2
  %5 = load i32, ptr %4, align 8, !tbaa !597
  %6 = add i32 %5, 1
  store i32 %6, ptr %4, align 8, !tbaa !597
  ret void
}

; Function Attrs: mustprogress uwtable
define linkonce_odr hidden noundef nonnull align 8 dereferenceable(8) ptr @_ZN3refI5modelEaSEPS0_(ptr noundef nonnull align 8 dereferenceable(8) %0, ptr noundef %1) #4 comdat align 2 {
  %3 = alloca ptr, align 8
  %4 = alloca ptr, align 8
  store ptr %0, ptr %3, align 8, !tbaa !402
  store ptr %1, ptr %4, align 8, !tbaa !421
  %5 = load ptr, ptr %3, align 8
  %6 = load ptr, ptr %4, align 8, !tbaa !421
  %7 = icmp ne ptr %6, null
  br i1 %7, label %8, label %10

8:                                                ; preds = %2
  %9 = load ptr, ptr %4, align 8, !tbaa !421
  call void @_ZN10model_core7inc_refEv(ptr noundef nonnull align 8 dereferenceable(96) %9)
  br label %10

10:                                               ; preds = %8, %2
  call void @_ZN3refI5modelE7dec_refEv(ptr noundef nonnull align 8 dereferenceable(8) %5)
  %11 = load ptr, ptr %4, align 8, !tbaa !421
  %12 = getelementptr inbounds nuw %class.ref, ptr %5, i32 0, i32 0
  store ptr %11, ptr %12, align 8, !tbaa !404
  ret ptr %5
}

; Function Attrs: mustprogress uwtable
define hidden void @_ZN3sls6solver8finalizeEv(ptr noundef nonnull align 8 dereferenceable(160) %0) unnamed_addr #4 align 2 {
  %2 = alloca ptr, align 8
  store ptr %0, ptr %2, align 8, !tbaa !3
  %3 = load ptr, ptr %2, align 8
  %4 = getelementptr inbounds nuw %"class.sls::solver", ptr %3, i32 0, i32 3
  %5 = load ptr, ptr %4, align 8, !tbaa !12
  %6 = icmp ne ptr %5, null
  br i1 %6, label %8, label %7

7:                                                ; preds = %1
  br label %16

8:                                                ; preds = %1
  %9 = getelementptr inbounds nuw %"class.sls::solver", ptr %3, i32 0, i32 3
  %10 = load ptr, ptr %9, align 8, !tbaa !12
  %11 = getelementptr inbounds nuw %"class.sls::solver", ptr %3, i32 0, i32 2
  %12 = getelementptr inbounds nuw %"class.sls::solver", ptr %3, i32 0, i32 6
  call void @_ZN3sls10smt_plugin8finalizeER3refI5modelER10statistics(ptr noundef nonnull align 8 dereferenceable(3024) %10, ptr noundef nonnull align 8 dereferenceable(8) %11, ptr noundef nonnull align 8 dereferenceable(16) %12)
  %13 = getelementptr inbounds nuw %"class.sls::solver", ptr %3, i32 0, i32 2
  %14 = call noundef nonnull align 8 dereferenceable(8) ptr @_ZN3refI5modelEaSEPS0_(ptr noundef nonnull align 8 dereferenceable(8) %13, ptr noundef null)
  %15 = getelementptr inbounds nuw %"class.sls::solver", ptr %3, i32 0, i32 3
  store ptr null, ptr %15, align 8, !tbaa !12
  br label %16

16:                                               ; preds = %8, %7
  ret void
}